target datalayout = "e-m:e-p270:32:32-p271:32:32-p272:64:64-i64:64-i128:128-f80:128-n8:16:32:64-S128"
target triple = "x86_64-pc-linux-gnu"

%union.lv_style_value_t = type { ptr }

; Function Attrs: nounwind uwtable
define zeroext i1 @lv_obj_has_style_prop(ptr noundef %0, i32 noundef %1, i8 noundef zeroext %2) #0 {
  %4 = alloca i1, align 1
  %5 = alloca ptr, align 8
  %6 = alloca i32, align 4
  %7 = alloca i8, align 1
  %8 = alloca %union.lv_style_value_t, align 8
  %9 = alloca i32, align 4
  %10 = alloca i32, align 4
  store ptr %0, ptr %5, align 8, !tbaa !30
  store i32 %1, ptr %6, align 4, !tbaa !32
  store i8 %2, ptr %7, align 1, !tbaa !43
  br label %11

11:                                               ; preds = %3
  %12 = load ptr, ptr %5, align 8, !tbaa !30
  %13 = icmp ne ptr %12, null
  br i1 %13, label %18, label %14

14:                                               ; preds = %11
  br label %15

15:                                               ; preds = %14
  br label %16

16:                                               ; preds = %15
  br label %17

17:                                               ; preds = %16, %17
  br label %17

18:                                               ; preds = %11
  br label %19

19:                                               ; preds = %18
  call void @llvm.lifetime.start.p0(i64 8, ptr %8) #6
  call void @llvm.memset.p0.i64(ptr align 8 %8, i8 0, i64 8, i1 false)
  call void @llvm.lifetime.start.p0(i64 4, ptr %9) #6
  %20 = load ptr, ptr %5, align 8, !tbaa !30
  %21 = load i32, ptr %6, align 4, !tbaa !32
  %22 = load i8, ptr %7, align 1, !tbaa !43
  %23 = call i32 @get_selector_style_prop(ptr noundef %20, i32 noundef %21, i8 noundef zeroext %22, ptr noundef %8)
  store i32 %23, ptr %9, align 4, !tbaa !32
  %24 = load i32, ptr %9, align 4, !tbaa !32
  %25 = icmp eq i32 %24, 1
  br i1 %25, label %26, label %27

26:                                               ; preds = %19
  store i1 true, ptr %4, align 1
  store i32 1, ptr %10, align 4
  br label %28

27:                                               ; preds = %19
  store i1 false, ptr %4, align 1
  store i32 1, ptr %10, align 4
  br label %28

28:                                               ; preds = %27, %26
  call void @llvm.lifetime.end.p0(i64 4, ptr %9) #6
  call void @llvm.lifetime.end.p0(i64 8, ptr %8) #6
  %29 = load i1, ptr %4, align 1
  ret i1 %29
}