; Function Attrs: nofree norecurse nosync nounwind memory(readwrite, inaccessiblemem: none) uwtable
define zeroext i1 @lv_obj_has_style_prop(ptr noundef readonly captures(address_is_null) %0, i32 noundef %1, i8 noundef zeroext %2) local_unnamed_addr #5 {
  %4 = alloca %union.lv_style_value_t, align 8
  %.not = icmp eq ptr %0, null
  br i1 %.not, label %.preheader, label %5

.preheader:                                       ; preds = %3, %.preheader
  br label %.preheader

5:                                                ; preds = %3
  call void @llvm.lifetime.start.p0(i64 8, ptr nonnull %4) #9
  %6 = call fastcc i32 @get_selector_style_prop(ptr noundef %0, i32 noundef %1, i8 noundef zeroext %2, ptr noundef %4)
  %.not6 = icmp ne i32 %6, 0
  call void @llvm.lifetime.end.p0(i64 8, ptr nonnull %4) #9
  ret i1 %.not6
}